target datalayout = "e-m:e-p270:32:32-p271:32:32-p272:64:64-i64:64-i128:128-f80:128-n8:16:32:64-S128"
target triple = "x86_64-pc-linux-gnu"

%struct.pmix_object_t = type { %union.pthread_mutex_t, ptr, i32, %struct.pmix_tma }
%union.pthread_mutex_t = type { %struct.__pthread_mutex_s }
%struct.__pthread_mutex_s = type { i32, i32, i32, i32, i32, i16, i16, %struct.__pthread_internal_list }
%struct.__pthread_internal_list = type { ptr, ptr }
%struct.pmix_tma = type { ptr, ptr, ptr, ptr, ptr, ptr, ptr, ptr }
%struct.pmix_list_item_t = type { %struct.pmix_object_t, ptr, ptr, i32 }
%struct.pmix_mca_base_component_repository_item_t = type { %struct.pmix_list_item_t, ptr, [32 x i8], [64 x i8], ptr, ptr, ptr, ptr, i32 }

; Function Attrs: nounwind uwtable
define internal void @pmix_mca_base_component_repository_release_internal(ptr noundef %0) #0 {
  %2 = alloca ptr, align 8
  %3 = alloca i32, align 4
  store ptr %0, ptr %2, align 8, !tbaa !3
  call void @llvm.lifetime.start.p0(i64 4, ptr %3) #12
  %4 = load ptr, ptr %2, align 8, !tbaa !3
  %5 = getelementptr inbounds nuw %struct.pmix_mca_base_component_repository_item_t, ptr %4, i32 0, i32 2
  %6 = getelementptr inbounds [32 x i8], ptr %5, i64 0, i64 0
  %7 = load ptr, ptr %2, align 8, !tbaa !3
  %8 = getelementptr inbounds nuw %struct.pmix_mca_base_component_repository_item_t, ptr %7, i32 0, i32 3
  %9 = getelementptr inbounds [64 x i8], ptr %8, i64 0, i64 0
  %10 = call i32 @pmix_mca_base_var_group_find(ptr noundef null, ptr noundef %6, ptr noundef %9)
  store i32 %10, ptr %3, align 4, !tbaa !37
  %11 = load i32, ptr %3, align 4, !tbaa !37
  %12 = icmp sle i32 0, %11
  br i1 %12, label %13, label %16

13:                                               ; preds = %1
  %14 = load i32, ptr %3, align 4, !tbaa !37
  %15 = call i32 @pmix_mca_base_var_group_deregister(i32 noundef %14)
  br label %16

16:                                               ; preds = %13, %1
  %17 = load ptr, ptr %2, align 8, !tbaa !3
  %18 = getelementptr inbounds nuw %struct.pmix_mca_base_component_repository_item_t, ptr %17, i32 0, i32 6
  %19 = load ptr, ptr %18, align 8, !tbaa !8
  %20 = icmp ne ptr %19, null
  br i1 %20, label %21, label %28

21:                                               ; preds = %16
  %22 = load ptr, ptr %2, align 8, !tbaa !3
  %23 = getelementptr inbounds nuw %struct.pmix_mca_base_component_repository_item_t, ptr %22, i32 0, i32 6
  %24 = load ptr, ptr %23, align 8, !tbaa !8
  %25 = call i32 @pmix_pdl_close(ptr noundef %24)
  %26 = load ptr, ptr %2, align 8, !tbaa !3
  %27 = getelementptr inbounds nuw %struct.pmix_mca_base_component_repository_item_t, ptr %26, i32 0, i32 6
  store ptr null, ptr %27, align 8, !tbaa !8
  br label %28

28:                                               ; preds = %21, %16
  call void @llvm.lifetime.end.p0(i64 4, ptr %3) #12
  ret void
}

; Function Attrs: nounwind uwtable
define internal void @ri_destructor(ptr noundef %0) #0 {
  %2 = alloca ptr, align 8
  store ptr %0, ptr %2, align 8, !tbaa !3
  %3 = load ptr, ptr %2, align 8, !tbaa !3
  call void @pmix_mca_base_component_repository_release_internal(ptr noundef %3)
  %4 = load ptr, ptr %2, align 8, !tbaa !3
  %5 = getelementptr inbounds nuw %struct.pmix_mca_base_component_repository_item_t, ptr %4, i32 0, i32 1
  %6 = load ptr, ptr %5, align 8, !tbaa !21
  %7 = icmp ne ptr null, %6
  br i1 %7, label %8, label %12

8:                                                ; preds = %1
  %9 = load ptr, ptr %2, align 8, !tbaa !3
  %10 = getelementptr inbounds nuw %struct.pmix_mca_base_component_repository_item_t, ptr %9, i32 0, i32 1
  %11 = load ptr, ptr %10, align 8, !tbaa !21
  call void @free(ptr noundef %11) #12
  br label %12

12:                                               ; preds = %8, %1
  %13 = load ptr, ptr %2, align 8, !tbaa !3
  %14 = getelementptr inbounds nuw %struct.pmix_mca_base_component_repository_item_t, ptr %13, i32 0, i32 4
  %15 = load ptr, ptr %14, align 8, !tbaa !20
  %16 = icmp ne ptr null, %15
  br i1 %16, label %17, label %21

17:                                               ; preds = %12
  %18 = load ptr, ptr %2, align 8, !tbaa !3
  %19 = getelementptr inbounds nuw %struct.pmix_mca_base_component_repository_item_t, ptr %18, i32 0, i32 4
  %20 = load ptr, ptr %19, align 8, !tbaa !20
  call void @free(ptr noundef %20) #12
  br label %21

21:                                               ; preds = %17, %12
  %22 = load ptr, ptr %2, align 8, !tbaa !3
  %23 = getelementptr inbounds nuw %struct.pmix_mca_base_component_repository_item_t, ptr %22, i32 0, i32 5
  %24 = load ptr, ptr %23, align 8, !tbaa !22
  %25 = icmp ne ptr null, %24
  br i1 %25, label %26, label %30

26:                                               ; preds = %21
  %27 = load ptr, ptr %2, align 8, !tbaa !3
  %28 = getelementptr inbounds nuw %struct.pmix_mca_base_component_repository_item_t, ptr %27, i32 0, i32 5
  %29 = load ptr, ptr %28, align 8, !tbaa !22
  call void @free(ptr noundef %29) #12
  br label %30

30:                                               ; preds = %26, %21
  ret void
}