; Function Attrs: nounwind uwtable
define internal void @ri_destructor(ptr noundef %0) #1 {
  %2 = getelementptr inbounds nuw i8, ptr %0, i64 152
  %3 = getelementptr inbounds nuw i8, ptr %0, i64 184
  %4 = tail call i32 @pmix_mca_base_var_group_find(ptr noundef null, ptr noundef nonnull %2, ptr noundef nonnull %3) #15
  %5 = icmp sgt i32 %4, -1
  br i1 %5, label %6, label %8

6:                                                ; preds = %1
  %7 = tail call i32 @pmix_mca_base_var_group_deregister(i32 noundef %4) #15
  br label %8

8:                                                ; preds = %6, %1
  %9 = getelementptr inbounds nuw i8, ptr %0, i64 264
  %10 = load ptr, ptr %9, align 8, !tbaa !17
  %.not.i = icmp eq ptr %10, null
  br i1 %.not.i, label %pmix_mca_base_component_repository_release_internal.exit, label %11

11:                                               ; preds = %8
  %12 = tail call i32 @pmix_pdl_close(ptr noundef nonnull %10) #15
  store ptr null, ptr %9, align 8, !tbaa !17
  br label %pmix_mca_base_component_repository_release_internal.exit

pmix_mca_base_component_repository_release_internal.exit: ; preds = %8, %11
  %13 = getelementptr inbounds nuw i8, ptr %0, i64 144
  %14 = load ptr, ptr %13, align 8, !tbaa !18
  %.not = icmp eq ptr %14, null
  br i1 %.not, label %16, label %15

15:                                               ; preds = %pmix_mca_base_component_repository_release_internal.exit
  tail call void @free(ptr noundef nonnull %14) #15
  br label %16

16:                                               ; preds = %15, %pmix_mca_base_component_repository_release_internal.exit
  %17 = getelementptr inbounds nuw i8, ptr %0, i64 248
  %18 = load ptr, ptr %17, align 8, !tbaa !3
  %.not9 = icmp eq ptr %18, null
  br i1 %.not9, label %20, label %19

19:                                               ; preds = %16
  tail call void @free(ptr noundef nonnull %18) #15
  br label %20

20:                                               ; preds = %19, %16
  %21 = getelementptr inbounds nuw i8, ptr %0, i64 256
  %22 = load ptr, ptr %21, align 8, !tbaa !19
  %.not10 = icmp eq ptr %22, null
  br i1 %.not10, label %24, label %23

23:                                               ; preds = %20
  tail call void @free(ptr noundef nonnull %22) #15
  br label %24

24:                                               ; preds = %23, %20
  ret void
}